; Function Attrs: mustprogress nofree norecurse nosync nounwind willreturn memory(argmem: read) uwtable
define internal noundef zeroext i1 @_ZNK12_GLOBAL__N_114Eq256MatcherP2IiiE10gmock_ImplIRKN4absl15random_internal4U256EE15MatchAndExplainES7_PN7testing19MatchResultListenerE(ptr noundef nonnull readonly align 8 captures(none) dereferenceable(16) %0, ptr noundef nonnull readonly align 16 captures(none) dereferenceable(32) %1, ptr readnone captures(none) %2) unnamed_addr #12 align 2 {
  %.sroa.01.0.copyload = load i64, ptr %1, align 16, !tbaa !133
  %.sroa.22.0..sroa_idx = getelementptr inbounds nuw i8, ptr %1, i64 8
  %.sroa.22.0.copyload = load i64, ptr %.sroa.22.0..sroa_idx, align 8, !tbaa !133
  %4 = getelementptr inbounds nuw i8, ptr %0, i64 8
  %5 = load i32, ptr %4, align 8, !tbaa !42
  %6 = sext i32 %5 to i64
  %.lobit.i = ashr i32 %5, 31
  %7 = sext i32 %.lobit.i to i64
  %.sroa.22.0.insert.ext.i = zext i64 %.sroa.22.0.copyload to i128
  %.sroa.22.0.insert.shift.i = shl nuw i128 %.sroa.22.0.insert.ext.i, 64
  %.sroa.01.0.insert.ext.i = zext i64 %.sroa.01.0.copyload to i128
  %.sroa.01.0.insert.insert.i = or disjoint i128 %.sroa.22.0.insert.shift.i, %.sroa.01.0.insert.ext.i
  %.sroa.2.0.insert.ext.i = zext i64 %7 to i128
  %.sroa.2.0.insert.shift.i = shl nuw i128 %.sroa.2.0.insert.ext.i, 64
  %.sroa.0.0.insert.ext.i = zext i64 %6 to i128
  %.sroa.0.0.insert.insert.i = or disjoint i128 %.sroa.2.0.insert.shift.i, %.sroa.0.0.insert.ext.i
  %8 = icmp eq i128 %.sroa.01.0.insert.insert.i, %.sroa.0.0.insert.insert.i
  br i1 %8, label %9, label %16

9:                                                ; preds = %3
  %10 = getelementptr inbounds nuw i8, ptr %1, i64 16
  %.sroa.0.0.copyload = load i64, ptr %10, align 16, !tbaa !133
  %.sroa.2.0..sroa_idx = getelementptr inbounds nuw i8, ptr %1, i64 24
  %.sroa.2.0.copyload = load i64, ptr %.sroa.2.0..sroa_idx, align 8, !tbaa !133
  %11 = getelementptr inbounds nuw i8, ptr %0, i64 12
  %12 = load i32, ptr %11, align 4, !tbaa !46
  %13 = sext i32 %12 to i64
  %.lobit.i5 = ashr i32 %12, 31
  %14 = sext i32 %.lobit.i5 to i64
  %.sroa.22.0.insert.ext.i6 = zext i64 %.sroa.2.0.copyload to i128
  %.sroa.22.0.insert.shift.i7 = shl nuw i128 %.sroa.22.0.insert.ext.i6, 64
  %.sroa.01.0.insert.ext.i8 = zext i64 %.sroa.0.0.copyload to i128
  %.sroa.01.0.insert.insert.i9 = or disjoint i128 %.sroa.22.0.insert.shift.i7, %.sroa.01.0.insert.ext.i8
  %.sroa.2.0.insert.ext.i10 = zext i64 %14 to i128
  %.sroa.2.0.insert.shift.i11 = shl nuw i128 %.sroa.2.0.insert.ext.i10, 64
  %.sroa.0.0.insert.ext.i12 = zext i64 %13 to i128
  %.sroa.0.0.insert.insert.i13 = or disjoint i128 %.sroa.2.0.insert.shift.i11, %.sroa.0.0.insert.ext.i12
  %15 = icmp eq i128 %.sroa.01.0.insert.insert.i9, %.sroa.0.0.insert.insert.i13
  br label %16

16:                                               ; preds = %9, %3
  %17 = phi i1 [ false, %3 ], [ %15, %9 ]
  ret i1 %17
}